target datalayout = "e-m:e-p270:32:32-p271:32:32-p272:64:64-i64:64-i128:128-f80:128-n8:16:32:64-S128"
target triple = "x86_64-pc-linux-gnu"

%struct.H5O_loc_t = type { ptr, i64, i8 }
%struct.H5O_obj_class_t = type { i32, ptr, ptr, ptr, ptr, ptr, ptr, ptr, ptr, ptr }

@H5O_init_g = external global i8, align 1
@H5_libterm_g = external global i8, align 1
@.str = private unnamed_addr constant [102 x i8] c"generated/home/dtcxzyw/WorkSpace/Projects/compilers/llvm-opt-benchmark/bench/hdf5/hdf5/src/H5Oflush.c\00", align 1
@__func__.H5O_flush = private unnamed_addr constant [10 x i8] c"H5O_flush\00", align 1
@H5E_FUNC_g = external global i64, align 8
@H5E_CANTINIT_g = external global i64, align 8
@.str.1 = private unnamed_addr constant [32 x i8] c"interface initialization failed\00", align 1
@H5E_ARGS_g = external global i64, align 8
@H5E_UNSUPPORTED_g = external global i64, align 8
@.str.2 = private unnamed_addr constant [38 x i8] c"H5Oflush isn't supported for parallel\00", align 1
@H5E_BADTYPE_g = external global i64, align 8
@.str.3 = private unnamed_addr constant [26 x i8] c"invalid object identifier\00", align 1
@H5E_OHDR_g = external global i64, align 8
@.str.4 = private unnamed_addr constant [33 x i8] c"unable to determine object class\00", align 1
@H5E_CANTFLUSH_g = external global i64, align 8
@.str.5 = private unnamed_addr constant [23 x i8] c"unable to flush object\00", align 1
@.str.6 = private unnamed_addr constant [49 x i8] c"unable to flush object and object flush callback\00", align 1

; Function Attrs: nounwind uwtable
define i32 @H5O_flush(ptr noundef %0, i64 noundef %1) #0 {
  %3 = alloca ptr, align 8
  %4 = alloca i64, align 8
  %5 = alloca ptr, align 8
  %6 = alloca ptr, align 8
  %7 = alloca i32, align 4
  %8 = alloca i8, align 1
  store ptr %0, ptr %3, align 8, !tbaa !3
  store i64 %1, ptr %4, align 8, !tbaa !8
  call void @llvm.lifetime.start.p0(i64 8, ptr %5) #4
  call void @llvm.lifetime.start.p0(i64 8, ptr %6) #4
  call void @llvm.lifetime.start.p0(i64 4, ptr %7) #4
  store i32 0, ptr %7, align 4, !tbaa !10
  call void @llvm.lifetime.start.p0(i64 1, ptr %8) #4
  store i8 0, ptr %8, align 1, !tbaa !12
  %9 = load i8, ptr @H5O_init_g, align 1, !tbaa !12, !range !14, !noundef !15
  %10 = trunc i8 %9 to i1
  br i1 %10, label %15, label %11

11:                                               ; preds = %2
  %12 = load i8, ptr @H5_libterm_g, align 1, !tbaa !12, !range !14, !noundef !15
  %13 = trunc i8 %12 to i1
  %14 = xor i1 %13, true
  br label %15

15:                                               ; preds = %11, %2
  %16 = phi i1 [ false, %2 ], [ %14, %11 ]
  %17 = xor i1 %16, true
  %18 = xor i1 %17, true
  %19 = zext i1 %18 to i32
  %20 = sext i32 %19 to i64
  %21 = call i64 @llvm.expect.i64(i64 %20, i64 0)
  %22 = icmp ne i64 %21, 0
  br i1 %22, label %23, label %46

23:                                               ; preds = %15
  store i8 1, ptr @H5O_init_g, align 1, !tbaa !12
  %24 = call i32 @H5O__init_package()
  %25 = icmp slt i32 %24, 0
  br i1 %25, label %26, label %45

26:                                               ; preds = %23
  store i8 0, ptr @H5O_init_g, align 1, !tbaa !12
  br label %27

27:                                               ; preds = %26
  br label %28

28:                                               ; preds = %27
  br label %29

29:                                               ; preds = %28
  %30 = load i64, ptr @H5E_FUNC_g, align 8, !tbaa !8
  %31 = load i64, ptr @H5E_CANTINIT_g, align 8, !tbaa !8
  %32 = call i32 (ptr, ptr, i32, i64, i64, ptr, ...) @H5E_printf_stack(ptr noundef @.str, ptr noundef @__func__.H5O_flush, i32 noundef 70, i64 noundef %30, i64 noundef %31, ptr noundef @.str.1)
  br label %33

33:                                               ; preds = %29
  br label %34

34:                                               ; preds = %33
  store i8 1, ptr %8, align 1, !tbaa !12
  %35 = load i8, ptr %8, align 1, !tbaa !12, !range !14, !noundef !15
  %36 = trunc i8 %35 to i1
  %37 = zext i1 %36 to i8
  store i8 %37, ptr %8, align 1, !tbaa !12
  br label %38

38:                                               ; preds = %34
  br label %39

39:                                               ; preds = %38
  br label %40

40:                                               ; preds = %39
  store i32 -1, ptr %7, align 4, !tbaa !10
  br label %187

41:                                               ; No predecessors!
  br label %42

42:                                               ; preds = %41
  br label %43

43:                                               ; preds = %42
  br label %44

44:                                               ; preds = %43
  br label %45

45:                                               ; preds = %44, %23
  br label %46

46:                                               ; preds = %45, %15
  %47 = load i8, ptr @H5O_init_g, align 1, !tbaa !12, !range !14, !noundef !15
  %48 = trunc i8 %47 to i1
  br i1 %48, label %53, label %49

49:                                               ; preds = %46
  %50 = load i8, ptr @H5_libterm_g, align 1, !tbaa !12, !range !14, !noundef !15
  %51 = trunc i8 %50 to i1
  %52 = xor i1 %51, true
  br label %53

53:                                               ; preds = %49, %46
  %54 = phi i1 [ true, %46 ], [ %52, %49 ]
  %55 = xor i1 %54, true
  %56 = xor i1 %55, true
  %57 = zext i1 %56 to i32
  %58 = sext i32 %57 to i64
  %59 = call i64 @llvm.expect.i64(i64 %58, i64 1)
  %60 = icmp ne i64 %59, 0
  br i1 %60, label %61, label %188

61:                                               ; preds = %53
  %62 = load ptr, ptr %3, align 8, !tbaa !3
  %63 = getelementptr inbounds nuw %struct.H5O_loc_t, ptr %62, i32 0, i32 0
  %64 = load ptr, ptr %63, align 8, !tbaa !16
  %65 = call zeroext i1 @H5F_has_feature(ptr noundef %64, i32 noundef 256)
  br i1 %65, label %66, label %85

66:                                               ; preds = %61
  br label %67

67:                                               ; preds = %66
  br label %68

68:                                               ; preds = %67
  br label %69

69:                                               ; preds = %68
  %70 = load i64, ptr @H5E_ARGS_g, align 8, !tbaa !8
  %71 = load i64, ptr @H5E_UNSUPPORTED_g, align 8, !tbaa !8
  %72 = call i32 (ptr, ptr, i32, i64, i64, ptr, ...) @H5E_printf_stack(ptr noundef @.str, ptr noundef @__func__.H5O_flush, i32 noundef 75, i64 noundef %70, i64 noundef %71, ptr noundef @.str.2)
  br label %73

73:                                               ; preds = %69
  br label %74

74:                                               ; preds = %73
  store i8 1, ptr %8, align 1, !tbaa !12
  %75 = load i8, ptr %8, align 1, !tbaa !12, !range !14, !noundef !15
  %76 = trunc i8 %75 to i1
  %77 = zext i1 %76 to i8
  store i8 %77, ptr %8, align 1, !tbaa !12
  br label %78

78:                                               ; preds = %74
  br label %79

79:                                               ; preds = %78
  br label %80

80:                                               ; preds = %79
  store i32 -1, ptr %7, align 4, !tbaa !10
  br label %187

81:                                               ; No predecessors!
  br label %82

82:                                               ; preds = %81
  br label %83

83:                                               ; preds = %82
  br label %84

84:                                               ; preds = %83
  br label %85

85:                                               ; preds = %84, %61
  %86 = load i64, ptr %4, align 8, !tbaa !8
  %87 = call ptr @H5VL_object(i64 noundef %86)
  store ptr %87, ptr %5, align 8, !tbaa !19
  %88 = icmp eq ptr null, %87
  br i1 %88, label %89, label %108

89:                                               ; preds = %85
  br label %90

90:                                               ; preds = %89
  br label %91

91:                                               ; preds = %90
  br label %92

92:                                               ; preds = %91
  %93 = load i64, ptr @H5E_ARGS_g, align 8, !tbaa !8
  %94 = load i64, ptr @H5E_BADTYPE_g, align 8, !tbaa !8
  %95 = call i32 (ptr, ptr, i32, i64, i64, ptr, ...) @H5E_printf_stack(ptr noundef @.str, ptr noundef @__func__.H5O_flush, i32 noundef 79, i64 noundef %93, i64 noundef %94, ptr noundef @.str.3)
  br label %96

96:                                               ; preds = %92
  br label %97

97:                                               ; preds = %96
  store i8 1, ptr %8, align 1, !tbaa !12
  %98 = load i8, ptr %8, align 1, !tbaa !12, !range !14, !noundef !15
  %99 = trunc i8 %98 to i1
  %100 = zext i1 %99 to i8
  store i8 %100, ptr %8, align 1, !tbaa !12
  br label %101

101:                                              ; preds = %97
  br label %102

102:                                              ; preds = %101
  br label %103

103:                                              ; preds = %102
  store i32 -1, ptr %7, align 4, !tbaa !10
  br label %187

104:                                              ; No predecessors!
  br label %105

105:                                              ; preds = %104
  br label %106

106:                                              ; preds = %105
  br label %107

107:                                              ; preds = %106
  br label %108

108:                                              ; preds = %107, %85
  %109 = load ptr, ptr %3, align 8, !tbaa !3
  %110 = call ptr @H5O__obj_class(ptr noundef %109)
  store ptr %110, ptr %6, align 8, !tbaa !20
  %111 = icmp eq ptr null, %110
  br i1 %111, label %112, label %131

112:                                              ; preds = %108
  br label %113

113:                                              ; preds = %112
  br label %114

114:                                              ; preds = %113
  br label %115

115:                                              ; preds = %114
  %116 = load i64, ptr @H5E_OHDR_g, align 8, !tbaa !8
  %117 = load i64, ptr @H5E_CANTINIT_g, align 8, !tbaa !8
  %118 = call i32 (ptr, ptr, i32, i64, i64, ptr, ...) @H5E_printf_stack(ptr noundef @.str, ptr noundef @__func__.H5O_flush, i32 noundef 83, i64 noundef %116, i64 noundef %117, ptr noundef @.str.4)
  br label %119

119:                                              ; preds = %115
  br label %120

120:                                              ; preds = %119
  store i8 1, ptr %8, align 1, !tbaa !12
  %121 = load i8, ptr %8, align 1, !tbaa !12, !range !14, !noundef !15
  %122 = trunc i8 %121 to i1
  %123 = zext i1 %122 to i8
  store i8 %123, ptr %8, align 1, !tbaa !12
  br label %124

124:                                              ; preds = %120
  br label %125

125:                                              ; preds = %124
  br label %126

126:                                              ; preds = %125
  store i32 -1, ptr %7, align 4, !tbaa !10
  br label %187

127:                                              ; No predecessors!
  br label %128

128:                                              ; preds = %127
  br label %129

129:                                              ; preds = %128
  br label %130

130:                                              ; preds = %129
  br label %131

131:                                              ; preds = %130, %108
  %132 = load ptr, ptr %6, align 8, !tbaa !20
  %133 = getelementptr inbounds nuw %struct.H5O_obj_class_t, ptr %132, i32 0, i32 9
  %134 = load ptr, ptr %133, align 8, !tbaa !22
  %135 = icmp ne ptr %134, null
  br i1 %135, label %136, label %162

136:                                              ; preds = %131
  %137 = load ptr, ptr %6, align 8, !tbaa !20
  %138 = getelementptr inbounds nuw %struct.H5O_obj_class_t, ptr %137, i32 0, i32 9
  %139 = load ptr, ptr %138, align 8, !tbaa !22
  %140 = load ptr, ptr %5, align 8, !tbaa !19
  %141 = call i32 %139(ptr noundef %140)
  %142 = icmp slt i32 %141, 0
  br i1 %142, label %143, label %162

143:                                              ; preds = %136
  br label %144

144:                                              ; preds = %143
  br label %145

145:                                              ; preds = %144
  br label %146

146:                                              ; preds = %145
  %147 = load i64, ptr @H5E_OHDR_g, align 8, !tbaa !8
  %148 = load i64, ptr @H5E_CANTFLUSH_g, align 8, !tbaa !8
  %149 = call i32 (ptr, ptr, i32, i64, i64, ptr, ...) @H5E_printf_stack(ptr noundef @.str, ptr noundef @__func__.H5O_flush, i32 noundef 87, i64 noundef %147, i64 noundef %148, ptr noundef @.str.5)
  br label %150

150:                                              ; preds = %146
  br label %151

151:                                              ; preds = %150
  store i8 1, ptr %8, align 1, !tbaa !12
  %152 = load i8, ptr %8, align 1, !tbaa !12, !range !14, !noundef !15
  %153 = trunc i8 %152 to i1
  %154 = zext i1 %153 to i8
  store i8 %154, ptr %8, align 1, !tbaa !12
  br label %155

155:                                              ; preds = %151
  br label %156

156:                                              ; preds = %155
  br label %157

157:                                              ; preds = %156
  store i32 -1, ptr %7, align 4, !tbaa !10
  br label %187

158:                                              ; No predecessors!
  br label %159

159:                                              ; preds = %158
  br label %160

160:                                              ; preds = %159
  br label %161

161:                                              ; preds = %160
  br label %162

162:                                              ; preds = %161, %136, %131
  %163 = load ptr, ptr %3, align 8, !tbaa !3
  %164 = load i64, ptr %4, align 8, !tbaa !8
  %165 = call i32 @H5O_flush_common(ptr noundef %163, i64 noundef %164)
  %166 = icmp slt i32 %165, 0
  br i1 %166, label %167, label %186

167:                                              ; preds = %162
  br label %168

168:                                              ; preds = %167
  br label %169

169:                                              ; preds = %168
  br label %170

170:                                              ; preds = %169
  %171 = load i64, ptr @H5E_OHDR_g, align 8, !tbaa !8
  %172 = load i64, ptr @H5E_CANTFLUSH_g, align 8, !tbaa !8
  %173 = call i32 (ptr, ptr, i32, i64, i64, ptr, ...) @H5E_printf_stack(ptr noundef @.str, ptr noundef @__func__.H5O_flush, i32 noundef 91, i64 noundef %171, i64 noundef %172, ptr noundef @.str.6)
  br label %174

174:                                              ; preds = %170
  br label %175

175:                                              ; preds = %174
  store i8 1, ptr %8, align 1, !tbaa !12
  %176 = load i8, ptr %8, align 1, !tbaa !12, !range !14, !noundef !15
  %177 = trunc i8 %176 to i1
  %178 = zext i1 %177 to i8
  store i8 %178, ptr %8, align 1, !tbaa !12
  br label %179

179:                                              ; preds = %175
  br label %180

180:                                              ; preds = %179
  br label %181

181:                                              ; preds = %180
  store i32 -1, ptr %7, align 4, !tbaa !10
  br label %187

182:                                              ; No predecessors!
  br label %183

183:                                              ; preds = %182
  br label %184

184:                                              ; preds = %183
  br label %185

185:                                              ; preds = %184
  br label %186

186:                                              ; preds = %185, %162
  br label %187

187:                                              ; preds = %186, %181, %157, %126, %103, %80, %40
  br label %188

188:                                              ; preds = %187, %53
  %189 = load i32, ptr %7, align 4, !tbaa !10
  call void @llvm.lifetime.end.p0(i64 1, ptr %8) #4
  call void @llvm.lifetime.end.p0(i64 4, ptr %7) #4
  call void @llvm.lifetime.end.p0(i64 8, ptr %6) #4
  call void @llvm.lifetime.end.p0(i64 8, ptr %5) #4
  ret i32 %189
}