; Function Attrs: nounwind uwtable
define range(i32 -1, 1) i32 @H5O_flush(ptr noundef %0, i64 noundef %1) local_unnamed_addr #0 {
  %3 = load i8, ptr @H5O_init_g, align 1, !tbaa !3, !range !7, !noundef !8
  %4 = trunc nuw i8 %3 to i1
  %5 = load i8, ptr @H5_libterm_g, align 1, !range !7
  %6 = trunc nuw i8 %5 to i1
  %7 = select i1 %4, i1 true, i1 %6
  br i1 %7, label %15, label %8, !prof !9

8:                                                ; preds = %2
  store i8 1, ptr @H5O_init_g, align 1, !tbaa !3
  %9 = tail call i32 @H5O__init_package() #3
  %10 = icmp slt i32 %9, 0
  br i1 %10, label %11, label %._crit_edge

._crit_edge:                                      ; preds = %8
  %.pre = load i8, ptr @H5O_init_g, align 1, !tbaa !3, !range !7
  %.pre17 = load i8, ptr @H5_libterm_g, align 1, !range !7
  %.pre18 = trunc nuw i8 %.pre to i1
  %.pre19 = trunc nuw i8 %.pre17 to i1
  br label %15

11:                                               ; preds = %8
  store i8 0, ptr @H5O_init_g, align 1, !tbaa !3
  %12 = load i64, ptr @H5E_FUNC_g, align 8, !tbaa !10
  %13 = load i64, ptr @H5E_CANTINIT_g, align 8, !tbaa !10
  %14 = tail call i32 (ptr, ptr, i32, i64, i64, ptr, ...) @H5E_printf_stack(ptr noundef nonnull @.str, ptr noundef nonnull @__func__.H5O_flush, i32 noundef 70, i64 noundef %12, i64 noundef %13, ptr noundef nonnull @.str.1) #3
  br label %56

15:                                               ; preds = %._crit_edge, %2
  %.pre-phi20 = phi i1 [ %.pre19, %._crit_edge ], [ %6, %2 ]
  %.pre-phi = phi i1 [ %.pre18, %._crit_edge ], [ %4, %2 ]
  %16 = xor i1 %.pre-phi20, true
  %17 = select i1 %.pre-phi, i1 true, i1 %16
  br i1 %17, label %18, label %56, !prof !9

18:                                               ; preds = %15
  %19 = load ptr, ptr %0, align 8, !tbaa !12
  %20 = tail call zeroext i1 @H5F_has_feature(ptr noundef %19, i32 noundef 256) #3
  br i1 %20, label %21, label %25

21:                                               ; preds = %18
  %22 = load i64, ptr @H5E_ARGS_g, align 8, !tbaa !10
  %23 = load i64, ptr @H5E_UNSUPPORTED_g, align 8, !tbaa !10
  %24 = tail call i32 (ptr, ptr, i32, i64, i64, ptr, ...) @H5E_printf_stack(ptr noundef nonnull @.str, ptr noundef nonnull @__func__.H5O_flush, i32 noundef 75, i64 noundef %22, i64 noundef %23, ptr noundef nonnull @.str.2) #3
  br label %56

25:                                               ; preds = %18
  %26 = tail call ptr @H5VL_object(i64 noundef %1) #3
  %27 = icmp eq ptr %26, null
  br i1 %27, label %28, label %32

28:                                               ; preds = %25
  %29 = load i64, ptr @H5E_ARGS_g, align 8, !tbaa !10
  %30 = load i64, ptr @H5E_BADTYPE_g, align 8, !tbaa !10
  %31 = tail call i32 (ptr, ptr, i32, i64, i64, ptr, ...) @H5E_printf_stack(ptr noundef nonnull @.str, ptr noundef nonnull @__func__.H5O_flush, i32 noundef 79, i64 noundef %29, i64 noundef %30, ptr noundef nonnull @.str.3) #3
  br label %56

32:                                               ; preds = %25
  %33 = tail call ptr @H5O__obj_class(ptr noundef nonnull %0) #3
  %34 = icmp eq ptr %33, null
  br i1 %34, label %35, label %39

35:                                               ; preds = %32
  %36 = load i64, ptr @H5E_OHDR_g, align 8, !tbaa !10
  %37 = load i64, ptr @H5E_CANTINIT_g, align 8, !tbaa !10
  %38 = tail call i32 (ptr, ptr, i32, i64, i64, ptr, ...) @H5E_printf_stack(ptr noundef nonnull @.str, ptr noundef nonnull @__func__.H5O_flush, i32 noundef 83, i64 noundef %36, i64 noundef %37, ptr noundef nonnull @.str.4) #3
  br label %56

39:                                               ; preds = %32
  %40 = getelementptr inbounds nuw i8, ptr %33, i64 72
  %41 = load ptr, ptr %40, align 8, !tbaa !16
  %.not = icmp eq ptr %41, null
  br i1 %.not, label %49, label %42

42:                                               ; preds = %39
  %43 = tail call i32 %41(ptr noundef nonnull %26) #3
  %44 = icmp slt i32 %43, 0
  br i1 %44, label %45, label %49

45:                                               ; preds = %42
  %46 = load i64, ptr @H5E_OHDR_g, align 8, !tbaa !10
  %47 = load i64, ptr @H5E_CANTFLUSH_g, align 8, !tbaa !10
  %48 = tail call i32 (ptr, ptr, i32, i64, i64, ptr, ...) @H5E_printf_stack(ptr noundef nonnull @.str, ptr noundef nonnull @__func__.H5O_flush, i32 noundef 87, i64 noundef %46, i64 noundef %47, ptr noundef nonnull @.str.5) #3
  br label %56

49:                                               ; preds = %42, %39
  %50 = tail call i32 @H5O_flush_common(ptr noundef nonnull %0, i64 noundef %1)
  %51 = icmp slt i32 %50, 0
  br i1 %51, label %52, label %56

52:                                               ; preds = %49
  %53 = load i64, ptr @H5E_OHDR_g, align 8, !tbaa !10
  %54 = load i64, ptr @H5E_CANTFLUSH_g, align 8, !tbaa !10
  %55 = tail call i32 (ptr, ptr, i32, i64, i64, ptr, ...) @H5E_printf_stack(ptr noundef nonnull @.str, ptr noundef nonnull @__func__.H5O_flush, i32 noundef 91, i64 noundef %53, i64 noundef %54, ptr noundef nonnull @.str.6) #3
  br label %56

56:                                               ; preds = %11, %21, %28, %35, %45, %52, %49, %15
  %.0 = phi i32 [ -1, %11 ], [ -1, %21 ], [ -1, %28 ], [ -1, %35 ], [ -1, %45 ], [ -1, %52 ], [ 0, %49 ], [ 0, %15 ]
  ret i32 %.0
}